target datalayout = "e-m:e-p270:32:32-p271:32:32-p272:64:64-i64:64-i128:128-f80:128-n8:16:32:64-S128"
target triple = "x86_64-pc-linux-gnu"

%"struct.lodepng::LodePNGICCCurve" = type { i32, ptr, i64, float, float, float, float, float, float, float }
%"struct.lodepng::LodePNGICC" = type { i32, i32, i32, i32, [3 x float], i32, [9 x float], i32, [3 x float], i32, [3 x float], [3 x float], [3 x float], i32, [3 x %"struct.lodepng::LodePNGICCCurve"] }

; Function Attrs: mustprogress nounwind uwtable
define internal void @_ZN7lodepngL12lodepng_freeEPv(ptr noundef %0) #3 {
  %2 = alloca ptr, align 8
  store ptr %0, ptr %2, align 8, !tbaa !81
  %3 = load ptr, ptr %2, align 8, !tbaa !81
  call void @free(ptr noundef %3) #19
  ret void
}

; Function Attrs: mustprogress uwtable
define void @_ZN7lodepng25lodepng_icc_curve_cleanupEPNS_15LodePNGICCCurveE(ptr noundef %0) #0 {
  %2 = alloca ptr, align 8
  store ptr %0, ptr %2, align 8, !tbaa !81
  %3 = load ptr, ptr %2, align 8, !tbaa !81
  %4 = getelementptr inbounds nuw %"struct.lodepng::LodePNGICCCurve", ptr %3, i32 0, i32 1
  %5 = load ptr, ptr %4, align 8, !tbaa !82
  call void @_ZN7lodepngL12lodepng_freeEPv(ptr noundef %5)
  ret void
}

; Function Attrs: mustprogress uwtable
define void @_ZN7lodepng19lodepng_icc_cleanupEPNS_10LodePNGICCE(ptr noundef %0) #0 {
  %2 = alloca ptr, align 8
  store ptr %0, ptr %2, align 8, !tbaa !81
  %3 = load ptr, ptr %2, align 8, !tbaa !81
  %4 = getelementptr inbounds nuw %"struct.lodepng::LodePNGICC", ptr %3, i32 0, i32 14
  %5 = getelementptr inbounds [3 x %"struct.lodepng::LodePNGICCCurve"], ptr %4, i64 0, i64 0
  call void @_ZN7lodepng25lodepng_icc_curve_cleanupEPNS_15LodePNGICCCurveE(ptr noundef %5)
  %6 = load ptr, ptr %2, align 8, !tbaa !81
  %7 = getelementptr inbounds nuw %"struct.lodepng::LodePNGICC", ptr %6, i32 0, i32 14
  %8 = getelementptr inbounds [3 x %"struct.lodepng::LodePNGICCCurve"], ptr %7, i64 0, i64 1
  call void @_ZN7lodepng25lodepng_icc_curve_cleanupEPNS_15LodePNGICCCurveE(ptr noundef %8)
  %9 = load ptr, ptr %2, align 8, !tbaa !81
  %10 = getelementptr inbounds nuw %"struct.lodepng::LodePNGICC", ptr %9, i32 0, i32 14
  %11 = getelementptr inbounds [3 x %"struct.lodepng::LodePNGICCCurve"], ptr %10, i64 0, i64 2
  call void @_ZN7lodepng25lodepng_icc_curve_cleanupEPNS_15LodePNGICCCurveE(ptr noundef %11)
  ret void
}