; Function Attrs: mustprogress nounwind willreturn uwtable
define void @_ZN7lodepng19lodepng_icc_cleanupEPNS_10LodePNGICCE(ptr noundef readonly captures(none) %0) local_unnamed_addr #8 {
  %2 = getelementptr inbounds nuw i8, ptr %0, i64 136
  %3 = load ptr, ptr %2, align 8, !tbaa !66
  tail call void @free(ptr noundef %3) #27
  %4 = getelementptr inbounds nuw i8, ptr %0, i64 192
  %5 = load ptr, ptr %4, align 8, !tbaa !66
  tail call void @free(ptr noundef %5) #27
  %6 = getelementptr inbounds nuw i8, ptr %0, i64 248
  %7 = load ptr, ptr %6, align 8, !tbaa !66
  tail call void @free(ptr noundef %7) #27
  ret void
}